---
triple:          'arm64-apple-darwin'
binary-path:     '/Users/pablobaezsantamaria/Desktop/UNIVERSIDAD/Semestre 6/Sistemas Operativos/leerImagenFile'
relocations:
  - { offsetInCU: 0x41ED, offset: 0x41ED, size: 0x8, addend: 0x0, symName: __ZNSt3__124__put_character_sequenceB7v160006IcNS_11char_traitsIcEEEERNS_13basic_ostreamIT_T0_EES7_PKS4_m, symObjAddr: 0xCBC, symBinAddr: 0x100003DA4, symSize: 0x1EC }
  - { offsetInCU: 0x83F3, offset: 0x83F3, size: 0x8, addend: 0x0, symName: __ZNSt3__1lsB7v160006INS_11char_traitsIcEEEERNS_13basic_ostreamIcT_EES6_PKc, symObjAddr: 0x50C, symBinAddr: 0x1000035F4, symSize: 0x48 }
  - { offsetInCU: 0x8439, offset: 0x8439, size: 0x8, addend: 0x0, symName: __ZNSt3__14endlB7v160006IcNS_11char_traitsIcEEEERNS_13basic_ostreamIT_T0_EES7_, symObjAddr: 0x580, symBinAddr: 0x100003668, symSize: 0x58 }
  - { offsetInCU: 0x8484, offset: 0x8484, size: 0x8, addend: 0x0, symName: __ZNSt3__116__pad_and_outputB7v160006IcNS_11char_traitsIcEEEENS_19ostreambuf_iteratorIT_T0_EES6_PKS4_S8_S8_RNS_8ios_baseES4_, symObjAddr: 0xEF8, symBinAddr: 0x100003FE0, symSize: 0x240 }
  - { offsetInCU: 0x8553, offset: 0x8553, size: 0x8, addend: 0x0, symName: __ZNSt3__119__debug_db_insert_cB7v160006INS_12basic_stringIcNS_11char_traitsIcEENS_9allocatorIcEEEEEEvPT_, symObjAddr: 0x138C, symBinAddr: 0x100004474, symSize: 0x10 }
  - { offsetInCU: 0x8584, offset: 0x8584, size: 0x8, addend: 0x0, symName: __ZNSt3__112__to_addressB7v160006IKcEEPT_S3_, symObjAddr: 0x1458, symBinAddr: 0x100004540, symSize: 0x14 }
  - { offsetInCU: 0x85EC, offset: 0x85EC, size: 0x8, addend: 0x0, symName: __ZNSt3__19use_facetB7v160006INS_5ctypeIcEEEERKT_RKNS_6localeE, symObjAddr: 0x16D0, symBinAddr: 0x1000047B8, symSize: 0x2C }
  - { offsetInCU: 0x8ABB, offset: 0x8ABB, size: 0x8, addend: 0x0, symName: __ZNSt3__118__constexpr_strlenB7v160006EPKc, symObjAddr: 0x1734, symBinAddr: 0x10000481C, symSize: 0x24 }
  - { offsetInCU: 0x8AE7, offset: 0x8AE7, size: 0x8, addend: 0x0, symName: __ZNSt3__122__make_exception_guardB7v160006INS_6vectorI5PixelNS_9allocatorIS2_EEE16__destroy_vectorEEENS_28__exception_guard_exceptionsIT_EES8_, symObjAddr: 0x1874, symBinAddr: 0x10000495C, symSize: 0x40 }
  - { offsetInCU: 0x8B1C, offset: 0x8B1C, size: 0x8, addend: 0x0, symName: __ZNSt3__119__debug_db_insert_cB7v160006INS_6vectorI5PixelNS_9allocatorIS2_EEEEEEvPT_, symObjAddr: 0x18E8, symBinAddr: 0x1000049D0, symSize: 0x10 }
  - { offsetInCU: 0x8B4D, offset: 0x8B4D, size: 0x8, addend: 0x0, symName: __ZNSt3__119__allocate_at_leastB7v160006INS_9allocatorI5PixelEEEENS_19__allocation_resultINS_16allocator_traitsIT_E7pointerEEERS6_m, symObjAddr: 0x1C78, symBinAddr: 0x100004D60, symSize: 0x40 }
  - { offsetInCU: 0x8B90, offset: 0x8B90, size: 0x8, addend: 0x0, symName: __ZNSt3__13minB7v160006ImEERKT_S3_S3_, symObjAddr: 0x1DD0, symBinAddr: 0x100004EB8, symSize: 0x2C }
  - { offsetInCU: 0x8DD4, offset: 0x8DD4, size: 0x8, addend: 0x0, symName: __ZNSt3__13minB7v160006ImNS_6__lessImmEEEERKT_S5_S5_T0_, symObjAddr: 0x1E5C, symBinAddr: 0x100004F44, symSize: 0x54 }
  - { offsetInCU: 0x8E69, offset: 0x8E69, size: 0x8, addend: 0x0, symName: __ZNSt3__120__throw_length_errorB7v160006EPKc, symObjAddr: 0x1F38, symBinAddr: 0x100005020, symSize: 0x64 }
  - { offsetInCU: 0x8E91, offset: 0x8E91, size: 0x8, addend: 0x0, symName: __ZNSt3__117__libcpp_allocateB7v160006Emm, symObjAddr: 0x20AC, symBinAddr: 0x100005194, symSize: 0x28 }
  - { offsetInCU: 0x8ECE, offset: 0x8ECE, size: 0x8, addend: 0x0, symName: __ZNSt3__121__libcpp_operator_newB7v160006IJmEEEPvDpT_, symObjAddr: 0x20D4, symBinAddr: 0x1000051BC, symSize: 0x24 }
  - { offsetInCU: 0x8F07, offset: 0x8F07, size: 0x8, addend: 0x0, symName: __ZNSt3__112__to_addressB7v160006I5PixelEEPT_S3_, symObjAddr: 0x21F0, symBinAddr: 0x1000052D8, symSize: 0x14 }
  - { offsetInCU: 0x8F3C, offset: 0x8F3C, size: 0x8, addend: 0x0, symName: __ZNSt3__118__debug_db_erase_cB7v160006INS_6vectorI5PixelNS_9allocatorIS2_EEEEEEvPT_, symObjAddr: 0x2544, symBinAddr: 0x10000562C, symSize: 0x10 }
  - { offsetInCU: 0x8F6D, offset: 0x8F6D, size: 0x8, addend: 0x0, symName: __ZNSt3__119__libcpp_deallocateB7v160006EPvmm, symObjAddr: 0x26E8, symBinAddr: 0x1000057D0, symSize: 0x30 }
  - { offsetInCU: 0x8FB5, offset: 0x8FB5, size: 0x8, addend: 0x0, symName: __ZNSt3__127__do_deallocate_handle_sizeB7v160006IJEEEvPvmDpT_, symObjAddr: 0x2718, symBinAddr: 0x100005800, symSize: 0x28 }
  - { offsetInCU: 0x8FF3, offset: 0x8FF3, size: 0x8, addend: 0x0, symName: __ZNSt3__124__libcpp_operator_deleteB7v160006IJPvEEEvDpT_, symObjAddr: 0x2740, symBinAddr: 0x100005828, symSize: 0x24 }
  - { offsetInCU: 0x9028, offset: 0x9028, size: 0x8, addend: 0x0, symName: __ZNSt3__122__make_exception_guardB7v160006INS_6vectorINS1_I5PixelNS_9allocatorIS2_EEEENS3_IS5_EEE16__destroy_vectorEEENS_28__exception_guard_exceptionsIT_EESA_, symObjAddr: 0x28CC, symBinAddr: 0x1000059B4, symSize: 0x40 }
  - { offsetInCU: 0x905D, offset: 0x905D, size: 0x8, addend: 0x0, symName: __ZNSt3__119__debug_db_insert_cB7v160006INS_6vectorINS1_I5PixelNS_9allocatorIS2_EEEENS3_IS5_EEEEEEvPT_, symObjAddr: 0x2940, symBinAddr: 0x100005A28, symSize: 0x10 }
  - { offsetInCU: 0x908E, offset: 0x908E, size: 0x8, addend: 0x0, symName: __ZNSt3__119__allocate_at_leastB7v160006INS_9allocatorINS_6vectorI5PixelNS1_IS3_EEEEEEEENS_19__allocation_resultINS_16allocator_traitsIT_E7pointerEEERS9_m, symObjAddr: 0x2CD8, symBinAddr: 0x100005DC0, symSize: 0x40 }
  - { offsetInCU: 0x90D1, offset: 0x90D1, size: 0x8, addend: 0x0, symName: __ZNSt3__112__to_addressB7v160006INS_6vectorI5PixelNS_9allocatorIS2_EEEEEEPT_S7_, symObjAddr: 0x3020, symBinAddr: 0x100006108, symSize: 0x14 }
  - { offsetInCU: 0x9106, offset: 0x9106, size: 0x8, addend: 0x0, symName: __ZNSt3__130__uninitialized_allocator_copyB7v160006INS_9allocatorI5PixelEEPS2_S4_S4_EET2_RT_T0_T1_S5_, symObjAddr: 0x3424, symBinAddr: 0x10000650C, symSize: 0xF4 }
  - { offsetInCU: 0x91A4, offset: 0x91A4, size: 0x8, addend: 0x0, symName: __ZNSt3__122__make_exception_guardB7v160006INS_29_AllocatorDestroyRangeReverseINS_9allocatorI5PixelEEPS3_EEEENS_28__exception_guard_exceptionsIT_EES8_, symObjAddr: 0x3518, symBinAddr: 0x100006600, symSize: 0x4C }
  - { offsetInCU: 0x91DA, offset: 0x91DA, size: 0x8, addend: 0x0, symName: __ZNSt3__119__allocator_destroyB7v160006INS_9allocatorI5PixelEENS_16reverse_iteratorIPS2_EES6_EEvRT_T0_T1_, symObjAddr: 0x37A8, symBinAddr: 0x100006890, symSize: 0x70 }
  - { offsetInCU: 0x923D, offset: 0x923D, size: 0x8, addend: 0x0, symName: __ZNSt3__1neB7v160006IP5PixelS2_EEbRKNS_16reverse_iteratorIT_EERKNS3_IT0_EE, symObjAddr: 0x384C, symBinAddr: 0x100006934, symSize: 0x48 }
  - { offsetInCU: 0x9289, offset: 0x9289, size: 0x8, addend: 0x0, symName: __ZNSt3__112__to_addressB7v160006INS_16reverse_iteratorIP5PixelEEvEENS_5decayIDTclsr19__to_address_helperIT_EE6__callclsr3stdE7declvalIRKS6_EEEEE4typeES8_, symObjAddr: 0x3894, symBinAddr: 0x10000697C, symSize: 0x24 }
  - { offsetInCU: 0x92E8, offset: 0x92E8, size: 0x8, addend: 0x0, symName: __ZNSt3__118__debug_db_erase_cB7v160006INS_6vectorINS1_I5PixelNS_9allocatorIS2_EEEENS3_IS5_EEEEEEvPT_, symObjAddr: 0x3B7C, symBinAddr: 0x100006C64, symSize: 0x10 }
  - { offsetInCU: 0x9319, offset: 0x9319, size: 0x8, addend: 0x0, symName: __ZNSt3__130__uninitialized_allocator_copyB7v160006INS_9allocatorINS_6vectorI5PixelNS1_IS3_EEEEEEPS5_S7_S7_EET2_RT_T0_T1_S8_, symObjAddr: 0x3FBC, symBinAddr: 0x1000070A4, symSize: 0xF4 }
  - { offsetInCU: 0x93B7, offset: 0x93B7, size: 0x8, addend: 0x0, symName: __ZNSt3__122__make_exception_guardB7v160006INS_29_AllocatorDestroyRangeReverseINS_9allocatorINS_6vectorI5PixelNS2_IS4_EEEEEEPS6_EEEENS_28__exception_guard_exceptionsIT_EESB_, symObjAddr: 0x40B0, symBinAddr: 0x100007198, symSize: 0x4C }
  - { offsetInCU: 0x93ED, offset: 0x93ED, size: 0x8, addend: 0x0, symName: __ZNSt3__119__allocator_destroyB7v160006INS_9allocatorINS_6vectorI5PixelNS1_IS3_EEEEEENS_16reverse_iteratorIPS5_EES9_EEvRT_T0_T1_, symObjAddr: 0x4340, symBinAddr: 0x100007428, symSize: 0x70 }
  - { offsetInCU: 0x9450, offset: 0x9450, size: 0x8, addend: 0x0, symName: __ZNSt3__1neB7v160006IPNS_6vectorI5PixelNS_9allocatorIS2_EEEES6_EEbRKNS_16reverse_iteratorIT_EERKNS7_IT0_EE, symObjAddr: 0x43E4, symBinAddr: 0x1000074CC, symSize: 0x48 }
  - { offsetInCU: 0x949C, offset: 0x949C, size: 0x8, addend: 0x0, symName: __ZNSt3__112__to_addressB7v160006INS_16reverse_iteratorIPNS_6vectorI5PixelNS_9allocatorIS3_EEEEEEvEENS_5decayIDTclsr19__to_address_helperIT_EE6__callclsr3stdE7declvalIRKSA_EEEEE4typeESC_, symObjAddr: 0x442C, symBinAddr: 0x100007514, symSize: 0x24 }
  - { offsetInCU: 0x988D, offset: 0x988D, size: 0x8, addend: 0x0, symName: __ZSt28__throw_bad_array_new_lengthB7v160006v, symObjAddr: 0x2078, symBinAddr: 0x100005160, symSize: 0x34 }
  - { offsetInCU: 0xC072, offset: 0xC072, size: 0x8, addend: 0x0, symName: __Z14leerArchivoBMPPKc, symObjAddr: 0x0, symBinAddr: 0x1000030E8, symSize: 0x378 }
  - { offsetInCU: 0xC21E, offset: 0xC21E, size: 0x8, addend: 0x0, symName: __ZNSt3__114basic_ifstreamIcNS_11char_traitsIcEEEC1EPKcj, symObjAddr: 0x378, symBinAddr: 0x100003460, symSize: 0x16C }
  - { offsetInCU: 0xC268, offset: 0xC268, size: 0x8, addend: 0x0, symName: __ZNKSt3__19basic_iosIcNS_11char_traitsIcEEEntB7v160006Ev, symObjAddr: 0x4E4, symBinAddr: 0x1000035CC, symSize: 0x28 }
  - { offsetInCU: 0xC28E, offset: 0xC28E, size: 0x8, addend: 0x0, symName: __ZNSt3__113basic_ostreamIcNS_11char_traitsIcEEElsB7v160006EPFRS3_S4_E, symObjAddr: 0x554, symBinAddr: 0x10000363C, symSize: 0x2C }
  - { offsetInCU: 0xC2C2, offset: 0xC2C2, size: 0x8, addend: 0x0, symName: __ZNSt3__16vectorI5PixelNS_9allocatorIS1_EEEC1Em, symObjAddr: 0x5D8, symBinAddr: 0x1000036C0, symSize: 0x34 }
  - { offsetInCU: 0xC2FD, offset: 0xC2FD, size: 0x8, addend: 0x0, symName: __ZNSt3__16vectorINS0_I5PixelNS_9allocatorIS1_EEEENS2_IS4_EEEC1EmRKS4_, symObjAddr: 0x60C, symBinAddr: 0x1000036F4, symSize: 0x3C }
  - { offsetInCU: 0xC347, offset: 0xC347, size: 0x8, addend: 0x0, symName: __ZNSt3__16vectorI5PixelNS_9allocatorIS1_EEED1B7v160006Ev, symObjAddr: 0x648, symBinAddr: 0x100003730, symSize: 0x2C }
  - { offsetInCU: 0xC371, offset: 0xC371, size: 0x8, addend: 0x0, symName: __ZNSt3__16vectorINS0_I5PixelNS_9allocatorIS1_EEEENS2_IS4_EEEixB7v160006Em, symObjAddr: 0x674, symBinAddr: 0x10000375C, symSize: 0x2C }
  - { offsetInCU: 0xC3A8, offset: 0xC3A8, size: 0x8, addend: 0x0, symName: __ZNSt3__16vectorI5PixelNS_9allocatorIS1_EEEixB7v160006Em, symObjAddr: 0x6A0, symBinAddr: 0x100003788, symSize: 0x2C }
  - { offsetInCU: 0xC3DF, offset: 0xC3DF, size: 0x8, addend: 0x0, symName: __ZNSt3__114basic_ifstreamIcNS_11char_traitsIcEEE5closeEv, symObjAddr: 0x6CC, symBinAddr: 0x1000037B4, symSize: 0x58 }
  - { offsetInCU: 0xC407, offset: 0xC407, size: 0x8, addend: 0x0, symName: __ZNSt3__16vectorINS0_I5PixelNS_9allocatorIS1_EEEENS2_IS4_EEED1B7v160006Ev, symObjAddr: 0x724, symBinAddr: 0x10000380C, symSize: 0x2C }
  - { offsetInCU: 0xC436, offset: 0xC436, size: 0x8, addend: 0x0, symName: __ZNSt3__114basic_ifstreamIcNS_11char_traitsIcEEED1Ev, symObjAddr: 0x750, symBinAddr: 0x100003838, symSize: 0x40 }
  - { offsetInCU: 0xC463, offset: 0xC463, size: 0x8, addend: 0x0, symName: __Z9verMatriziiiiNSt3__16vectorINS0_I5PixelNS_9allocatorIS1_EEEENS2_IS4_EEEE, symObjAddr: 0x790, symBinAddr: 0x100003878, symSize: 0x190 }
  - { offsetInCU: 0xC501, offset: 0xC501, size: 0x8, addend: 0x0, symName: _main, symObjAddr: 0x920, symBinAddr: 0x100003A08, symSize: 0x114 }
  - { offsetInCU: 0xC547, offset: 0xC547, size: 0x8, addend: 0x0, symName: __ZNSt3__16vectorINS0_I5PixelNS_9allocatorIS1_EEEENS2_IS4_EEEC1ERKS6_, symObjAddr: 0xA34, symBinAddr: 0x100003B1C, symSize: 0x34 }
  - { offsetInCU: 0xC582, offset: 0xC582, size: 0x8, addend: 0x0, symName: __ZNSt3__114basic_ifstreamIcNS_11char_traitsIcEEED2Ev, symObjAddr: 0xA68, symBinAddr: 0x100003B50, symSize: 0x64 }
  - { offsetInCU: 0xC5BC, offset: 0xC5BC, size: 0x8, addend: 0x0, symName: __ZTv0_n24_NSt3__114basic_ifstreamIcNS_11char_traitsIcEEED1Ev, symObjAddr: 0xACC, symBinAddr: 0x100003BB4, symSize: 0x28 }
  - { offsetInCU: 0xC5D3, offset: 0xC5D3, size: 0x8, addend: 0x0, symName: __ZNSt3__19basic_iosIcNS_11char_traitsIcEEEC2B7v160006Ev, symObjAddr: 0xAF4, symBinAddr: 0x100003BDC, symSize: 0x44 }
  - { offsetInCU: 0xC5FD, offset: 0xC5FD, size: 0x8, addend: 0x0, symName: __ZNSt3__113basic_istreamIcNS_11char_traitsIcEEEC2B7v160006EPNS_15basic_streambufIcS2_EE, symObjAddr: 0xB38, symBinAddr: 0x100003C20, symSize: 0x64 }
  - { offsetInCU: 0xC642, offset: 0xC642, size: 0x8, addend: 0x0, symName: __ZNSt3__19basic_iosIcNS_11char_traitsIcEEE8setstateB7v160006Ej, symObjAddr: 0xB9C, symBinAddr: 0x100003C84, symSize: 0x2C }
  - { offsetInCU: 0xC677, offset: 0xC677, size: 0x8, addend: 0x0, symName: __ZNSt3__18ios_baseC2B7v160006Ev, symObjAddr: 0xBC8, symBinAddr: 0x100003CB0, symSize: 0x24 }
  - { offsetInCU: 0xC6A1, offset: 0xC6A1, size: 0x8, addend: 0x0, symName: __ZNSt3__19basic_iosIcNS_11char_traitsIcEEE4initB7v160006EPNS_15basic_streambufIcS2_EE, symObjAddr: 0xBEC, symBinAddr: 0x100003CD4, symSize: 0x44 }
  - { offsetInCU: 0xC6D8, offset: 0xC6D8, size: 0x8, addend: 0x0, symName: __ZNSt3__111char_traitsIcE3eofEv, symObjAddr: 0xC30, symBinAddr: 0x100003D18, symSize: 0x8 }
  - { offsetInCU: 0xC6EC, offset: 0xC6EC, size: 0x8, addend: 0x0, symName: __ZNSt3__18ios_base8setstateB7v160006Ej, symObjAddr: 0xC38, symBinAddr: 0x100003D20, symSize: 0x34 }
  - { offsetInCU: 0xC723, offset: 0xC723, size: 0x8, addend: 0x0, symName: __ZNKSt3__19basic_iosIcNS_11char_traitsIcEEE4failB7v160006Ev, symObjAddr: 0xC6C, symBinAddr: 0x100003D54, symSize: 0x28 }
  - { offsetInCU: 0xC749, offset: 0xC749, size: 0x8, addend: 0x0, symName: __ZNKSt3__18ios_base4failB7v160006Ev, symObjAddr: 0xC94, symBinAddr: 0x100003D7C, symSize: 0x28 }
  - { offsetInCU: 0xC771, offset: 0xC771, size: 0x8, addend: 0x0, symName: __ZNSt3__111char_traitsIcE6lengthEPKc, symObjAddr: 0xEA8, symBinAddr: 0x100003F90, symSize: 0x34 }
  - { offsetInCU: 0xC7B2, offset: 0xC7B2, size: 0x8, addend: 0x0, symName: __ZNKSt3__113basic_ostreamIcNS_11char_traitsIcEEE6sentrycvbB7v160006Ev, symObjAddr: 0xEDC, symBinAddr: 0x100003FC4, symSize: 0x1C }
  - { offsetInCU: 0xC7D8, offset: 0xC7D8, size: 0x8, addend: 0x0, symName: __ZNSt3__119ostreambuf_iteratorIcNS_11char_traitsIcEEEC1B7v160006ERNS_13basic_ostreamIcS2_EE, symObjAddr: 0x1138, symBinAddr: 0x100004220, symSize: 0x34 }
  - { offsetInCU: 0xC810, offset: 0xC810, size: 0x8, addend: 0x0, symName: __ZNKSt3__18ios_base5flagsB7v160006Ev, symObjAddr: 0x116C, symBinAddr: 0x100004254, symSize: 0x18 }
  - { offsetInCU: 0xC838, offset: 0xC838, size: 0x8, addend: 0x0, symName: __ZNKSt3__19basic_iosIcNS_11char_traitsIcEEE4fillB7v160006Ev, symObjAddr: 0x1184, symBinAddr: 0x10000426C, symSize: 0x64 }
  - { offsetInCU: 0xC860, offset: 0xC860, size: 0x8, addend: 0x0, symName: __ZNKSt3__119ostreambuf_iteratorIcNS_11char_traitsIcEEE6failedB7v160006Ev, symObjAddr: 0x11E8, symBinAddr: 0x1000042D0, symSize: 0x24 }
  - { offsetInCU: 0xC886, offset: 0xC886, size: 0x8, addend: 0x0, symName: __ZNKSt3__18ios_base5widthB7v160006Ev, symObjAddr: 0x1218, symBinAddr: 0x100004300, symSize: 0x18 }
  - { offsetInCU: 0xC8AE, offset: 0xC8AE, size: 0x8, addend: 0x0, symName: __ZNSt3__115basic_streambufIcNS_11char_traitsIcEEE5sputnB7v160006EPKcl, symObjAddr: 0x1230, symBinAddr: 0x100004318, symSize: 0x3C }
  - { offsetInCU: 0xC8F0, offset: 0xC8F0, size: 0x8, addend: 0x0, symName: __ZNSt3__112basic_stringIcNS_11char_traitsIcEENS_9allocatorIcEEEC1B7v160006Emc, symObjAddr: 0x126C, symBinAddr: 0x100004354, symSize: 0x3C }
  - { offsetInCU: 0xC938, offset: 0xC938, size: 0x8, addend: 0x0, symName: __ZNKSt3__112basic_stringIcNS_11char_traitsIcEENS_9allocatorIcEEE4dataB7v160006Ev, symObjAddr: 0x12A8, symBinAddr: 0x100004390, symSize: 0x28 }
  - { offsetInCU: 0xC95E, offset: 0xC95E, size: 0x8, addend: 0x0, symName: __ZNSt3__18ios_base5widthB7v160006El, symObjAddr: 0x12D0, symBinAddr: 0x1000043B8, symSize: 0x2C }
  - { offsetInCU: 0xC9A4, offset: 0xC9A4, size: 0x8, addend: 0x0, symName: __ZNSt3__112basic_stringIcNS_11char_traitsIcEENS_9allocatorIcEEEC2B7v160006Emc, symObjAddr: 0x12FC, symBinAddr: 0x1000043E4, symSize: 0x54 }
  - { offsetInCU: 0xC9F1, offset: 0xC9F1, size: 0x8, addend: 0x0, symName: __ZNSt3__117__compressed_pairINS_12basic_stringIcNS_11char_traitsIcEENS_9allocatorIcEEE5__repES5_EC1B7v160006INS_18__default_init_tagESA_EEOT_OT0_, symObjAddr: 0x1350, symBinAddr: 0x100004438, symSize: 0x3C }
  - { offsetInCU: 0xCA49, offset: 0xCA49, size: 0x8, addend: 0x0, symName: __ZNSt3__117__compressed_pairINS_12basic_stringIcNS_11char_traitsIcEENS_9allocatorIcEEE5__repES5_EC2B7v160006INS_18__default_init_tagESA_EEOT_OT0_, symObjAddr: 0x139C, symBinAddr: 0x100004484, symSize: 0x3C }
  - { offsetInCU: 0xCAA1, offset: 0xCAA1, size: 0x8, addend: 0x0, symName: __ZNSt3__122__compressed_pair_elemINS_12basic_stringIcNS_11char_traitsIcEENS_9allocatorIcEEE5__repELi0ELb0EEC2B7v160006ENS_18__default_init_tagE, symObjAddr: 0x13D8, symBinAddr: 0x1000044C0, symSize: 0x14 }
  - { offsetInCU: 0xCAD6, offset: 0xCAD6, size: 0x8, addend: 0x0, symName: __ZNSt3__122__compressed_pair_elemINS_9allocatorIcEELi1ELb1EEC2B7v160006ENS_18__default_init_tagE, symObjAddr: 0x13EC, symBinAddr: 0x1000044D4, symSize: 0x2C }
  - { offsetInCU: 0xCB0B, offset: 0xCB0B, size: 0x8, addend: 0x0, symName: __ZNSt3__19allocatorIcEC2B7v160006Ev, symObjAddr: 0x1418, symBinAddr: 0x100004500, symSize: 0x2C }
  - { offsetInCU: 0xCB35, offset: 0xCB35, size: 0x8, addend: 0x0, symName: __ZNSt3__116__non_trivial_ifILb1ENS_9allocatorIcEEEC2B7v160006Ev, symObjAddr: 0x1444, symBinAddr: 0x10000452C, symSize: 0x14 }
  - { offsetInCU: 0xCB5F, offset: 0xCB5F, size: 0x8, addend: 0x0, symName: __ZNKSt3__112basic_stringIcNS_11char_traitsIcEENS_9allocatorIcEEE13__get_pointerB7v160006Ev, symObjAddr: 0x146C, symBinAddr: 0x100004554, symSize: 0x54 }
  - { offsetInCU: 0xCB85, offset: 0xCB85, size: 0x8, addend: 0x0, symName: __ZNKSt3__112basic_stringIcNS_11char_traitsIcEENS_9allocatorIcEEE9__is_longB7v160006Ev, symObjAddr: 0x14C0, symBinAddr: 0x1000045A8, symSize: 0x38 }
  - { offsetInCU: 0xCBAB, offset: 0xCBAB, size: 0x8, addend: 0x0, symName: __ZNKSt3__112basic_stringIcNS_11char_traitsIcEENS_9allocatorIcEEE18__get_long_pointerB7v160006Ev, symObjAddr: 0x14F8, symBinAddr: 0x1000045E0, symSize: 0x28 }
  - { offsetInCU: 0xCBD1, offset: 0xCBD1, size: 0x8, addend: 0x0, symName: __ZNKSt3__112basic_stringIcNS_11char_traitsIcEENS_9allocatorIcEEE19__get_short_pointerB7v160006Ev, symObjAddr: 0x1520, symBinAddr: 0x100004608, symSize: 0x28 }
  - { offsetInCU: 0xCBF7, offset: 0xCBF7, size: 0x8, addend: 0x0, symName: __ZNKSt3__117__compressed_pairINS_12basic_stringIcNS_11char_traitsIcEENS_9allocatorIcEEE5__repES5_E5firstB7v160006Ev, symObjAddr: 0x1548, symBinAddr: 0x100004630, symSize: 0x24 }
  - { offsetInCU: 0xCC1D, offset: 0xCC1D, size: 0x8, addend: 0x0, symName: __ZNKSt3__122__compressed_pair_elemINS_12basic_stringIcNS_11char_traitsIcEENS_9allocatorIcEEE5__repELi0ELb0EE5__getB7v160006Ev, symObjAddr: 0x156C, symBinAddr: 0x100004654, symSize: 0x14 }
  - { offsetInCU: 0xCC43, offset: 0xCC43, size: 0x8, addend: 0x0, symName: __ZNSt3__114pointer_traitsIPKcE10pointer_toB7v160006ERS1_, symObjAddr: 0x1580, symBinAddr: 0x100004668, symSize: 0x14 }
  - { offsetInCU: 0xCC66, offset: 0xCC66, size: 0x8, addend: 0x0, symName: __ZNSt3__119ostreambuf_iteratorIcNS_11char_traitsIcEEEC2B7v160006ERNS_13basic_ostreamIcS2_EE, symObjAddr: 0x1594, symBinAddr: 0x10000467C, symSize: 0x54 }
  - { offsetInCU: 0xCC9E, offset: 0xCC9E, size: 0x8, addend: 0x0, symName: __ZNKSt3__19basic_iosIcNS_11char_traitsIcEEE5rdbufB7v160006Ev, symObjAddr: 0x15E8, symBinAddr: 0x1000046D0, symSize: 0x24 }
  - { offsetInCU: 0xCCC6, offset: 0xCCC6, size: 0x8, addend: 0x0, symName: __ZNKSt3__18ios_base5rdbufB7v160006Ev, symObjAddr: 0x160C, symBinAddr: 0x1000046F4, symSize: 0x18 }
  - { offsetInCU: 0xCCEC, offset: 0xCCEC, size: 0x8, addend: 0x0, symName: __ZNSt3__111char_traitsIcE11eq_int_typeEii, symObjAddr: 0x1624, symBinAddr: 0x10000470C, symSize: 0x28 }
  - { offsetInCU: 0xCD1D, offset: 0xCD1D, size: 0x8, addend: 0x0, symName: __ZNKSt3__19basic_iosIcNS_11char_traitsIcEEE5widenB7v160006Ec, symObjAddr: 0x164C, symBinAddr: 0x100004734, symSize: 0x84 }
  - { offsetInCU: 0xCD8B, offset: 0xCD8B, size: 0x8, addend: 0x0, symName: __ZNKSt3__15ctypeIcE5widenB7v160006Ec, symObjAddr: 0x16FC, symBinAddr: 0x1000047E4, symSize: 0x38 }
  - { offsetInCU: 0xCDC0, offset: 0xCDC0, size: 0x8, addend: 0x0, symName: __ZNSt3__16vectorI5PixelNS_9allocatorIS1_EEEC2Em, symObjAddr: 0x1758, symBinAddr: 0x100004840, symSize: 0xE0 }
  - { offsetInCU: 0xCE15, offset: 0xCE15, size: 0x8, addend: 0x0, symName: __ZNSt3__117__compressed_pairIP5PixelNS_9allocatorIS1_EEEC1B7v160006IDnNS_18__default_init_tagEEEOT_OT0_, symObjAddr: 0x1838, symBinAddr: 0x100004920, symSize: 0x3C }
  - { offsetInCU: 0xCE6D, offset: 0xCE6D, size: 0x8, addend: 0x0, symName: __ZNSt3__16vectorI5PixelNS_9allocatorIS1_EEE16__destroy_vectorC1ERS4_, symObjAddr: 0x18B4, symBinAddr: 0x10000499C, symSize: 0x34 }
  - { offsetInCU: 0xCEA6, offset: 0xCEA6, size: 0x8, addend: 0x0, symName: __ZNSt3__16vectorI5PixelNS_9allocatorIS1_EEE11__vallocateB7v160006Em, symObjAddr: 0x18F8, symBinAddr: 0x1000049E0, symSize: 0xB4 }
  - { offsetInCU: 0xCEEA, offset: 0xCEEA, size: 0x8, addend: 0x0, symName: __ZNSt3__16vectorI5PixelNS_9allocatorIS1_EEE18__construct_at_endEm, symObjAddr: 0x19AC, symBinAddr: 0x100004A94, symSize: 0xC8 }
  - { offsetInCU: 0xCF5D, offset: 0xCF5D, size: 0x8, addend: 0x0, symName: __ZNSt3__128__exception_guard_exceptionsINS_6vectorI5PixelNS_9allocatorIS2_EEE16__destroy_vectorEE10__completeB7v160006Ev, symObjAddr: 0x1A74, symBinAddr: 0x100004B5C, symSize: 0x1C }
  - { offsetInCU: 0xCF83, offset: 0xCF83, size: 0x8, addend: 0x0, symName: __ZNSt3__128__exception_guard_exceptionsINS_6vectorI5PixelNS_9allocatorIS2_EEE16__destroy_vectorEED1B7v160006Ev, symObjAddr: 0x1A90, symBinAddr: 0x100004B78, symSize: 0x2C }
  - { offsetInCU: 0xCFAD, offset: 0xCFAD, size: 0x8, addend: 0x0, symName: __ZNSt3__117__compressed_pairIP5PixelNS_9allocatorIS1_EEEC2B7v160006IDnNS_18__default_init_tagEEEOT_OT0_, symObjAddr: 0x1ABC, symBinAddr: 0x100004BA4, symSize: 0x40 }
  - { offsetInCU: 0xD005, offset: 0xD005, size: 0x8, addend: 0x0, symName: __ZNSt3__122__compressed_pair_elemIP5PixelLi0ELb0EEC2B7v160006IDnvEEOT_, symObjAddr: 0x1AFC, symBinAddr: 0x100004BE4, symSize: 0x1C }
  - { offsetInCU: 0xD047, offset: 0xD047, size: 0x8, addend: 0x0, symName: __ZNSt3__122__compressed_pair_elemINS_9allocatorI5PixelEELi1ELb1EEC2B7v160006ENS_18__default_init_tagE, symObjAddr: 0x1B18, symBinAddr: 0x100004C00, symSize: 0x2C }
  - { offsetInCU: 0xD07C, offset: 0xD07C, size: 0x8, addend: 0x0, symName: __ZNSt3__19allocatorI5PixelEC2B7v160006Ev, symObjAddr: 0x1B44, symBinAddr: 0x100004C2C, symSize: 0x2C }
  - { offsetInCU: 0xD0A6, offset: 0xD0A6, size: 0x8, addend: 0x0, symName: __ZNSt3__116__non_trivial_ifILb1ENS_9allocatorI5PixelEEEC2B7v160006Ev, symObjAddr: 0x1B70, symBinAddr: 0x100004C58, symSize: 0x14 }
  - { offsetInCU: 0xD0D0, offset: 0xD0D0, size: 0x8, addend: 0x0, symName: __ZNSt3__128__exception_guard_exceptionsINS_6vectorI5PixelNS_9allocatorIS2_EEE16__destroy_vectorEEC1B7v160006ES6_, symObjAddr: 0x1B84, symBinAddr: 0x100004C6C, symSize: 0x34 }
  - { offsetInCU: 0xD108, offset: 0xD108, size: 0x8, addend: 0x0, symName: __ZNSt3__128__exception_guard_exceptionsINS_6vectorI5PixelNS_9allocatorIS2_EEE16__destroy_vectorEEC2B7v160006ES6_, symObjAddr: 0x1BB8, symBinAddr: 0x100004CA0, symSize: 0x24 }
  - { offsetInCU: 0xD140, offset: 0xD140, size: 0x8, addend: 0x0, symName: __ZNSt3__16vectorI5PixelNS_9allocatorIS1_EEE16__destroy_vectorC2ERS4_, symObjAddr: 0x1BDC, symBinAddr: 0x100004CC4, symSize: 0x20 }
  - { offsetInCU: 0xD179, offset: 0xD179, size: 0x8, addend: 0x0, symName: __ZNKSt3__16vectorI5PixelNS_9allocatorIS1_EEE8max_sizeEv, symObjAddr: 0x1BFC, symBinAddr: 0x100004CE4, symSize: 0x60 }
  - { offsetInCU: 0xD1A1, offset: 0xD1A1, size: 0x8, addend: 0x0, symName: __ZNKSt3__16vectorI5PixelNS_9allocatorIS1_EEE20__throw_length_errorB7v160006Ev, symObjAddr: 0x1C5C, symBinAddr: 0x100004D44, symSize: 0x1C }
  - { offsetInCU: 0xD1C7, offset: 0xD1C7, size: 0x8, addend: 0x0, symName: __ZNSt3__16vectorI5PixelNS_9allocatorIS1_EEE7__allocB7v160006Ev, symObjAddr: 0x1CB8, symBinAddr: 0x100004DA0, symSize: 0x28 }
  - { offsetInCU: 0xD1ED, offset: 0xD1ED, size: 0x8, addend: 0x0, symName: __ZNSt3__16vectorI5PixelNS_9allocatorIS1_EEE9__end_capB7v160006Ev, symObjAddr: 0x1CE0, symBinAddr: 0x100004DC8, symSize: 0x28 }
  - { offsetInCU: 0xD213, offset: 0xD213, size: 0x8, addend: 0x0, symName: __ZNKSt3__16vectorI5PixelNS_9allocatorIS1_EEE14__annotate_newB7v160006Em, symObjAddr: 0x1D08, symBinAddr: 0x100004DF0, symSize: 0xC8 }
  - { offsetInCU: 0xD252, offset: 0xD252, size: 0x8, addend: 0x0, symName: __ZNSt3__116allocator_traitsINS_9allocatorI5PixelEEE8max_sizeB7v160006IS3_vEEmRKS3_, symObjAddr: 0x1DFC, symBinAddr: 0x100004EE4, symSize: 0x24 }
  - { offsetInCU: 0xD280, offset: 0xD280, size: 0x8, addend: 0x0, symName: __ZNKSt3__16vectorI5PixelNS_9allocatorIS1_EEE7__allocB7v160006Ev, symObjAddr: 0x1E20, symBinAddr: 0x100004F08, symSize: 0x28 }
  - { offsetInCU: 0xD2A6, offset: 0xD2A6, size: 0x8, addend: 0x0, symName: __ZNSt3__114numeric_limitsIlE3maxB7v160006Ev, symObjAddr: 0x1E48, symBinAddr: 0x100004F30, symSize: 0x14 }
  - { offsetInCU: 0xD2CE, offset: 0xD2CE, size: 0x8, addend: 0x0, symName: __ZNKSt3__16__lessImmEclB7v160006ERKmS3_, symObjAddr: 0x1EB0, symBinAddr: 0x100004F98, symSize: 0x34 }
  - { offsetInCU: 0xD310, offset: 0xD310, size: 0x8, addend: 0x0, symName: __ZNKSt3__19allocatorI5PixelE8max_sizeB7v160006Ev, symObjAddr: 0x1EE4, symBinAddr: 0x100004FCC, symSize: 0x14 }
  - { offsetInCU: 0xD336, offset: 0xD336, size: 0x8, addend: 0x0, symName: __ZNKSt3__117__compressed_pairIP5PixelNS_9allocatorIS1_EEE6secondB7v160006Ev, symObjAddr: 0x1EF8, symBinAddr: 0x100004FE0, symSize: 0x24 }
  - { offsetInCU: 0xD35C, offset: 0xD35C, size: 0x8, addend: 0x0, symName: __ZNKSt3__122__compressed_pair_elemINS_9allocatorI5PixelEELi1ELb1EE5__getB7v160006Ev, symObjAddr: 0x1F1C, symBinAddr: 0x100005004, symSize: 0x14 }
  - { offsetInCU: 0xD382, offset: 0xD382, size: 0x8, addend: 0x0, symName: __ZNSt3__123__libcpp_numeric_limitsIlLb1EE3maxB7v160006Ev, symObjAddr: 0x1F30, symBinAddr: 0x100005018, symSize: 0x8 }
  - { offsetInCU: 0xD396, offset: 0xD396, size: 0x8, addend: 0x0, symName: __ZNSt12length_errorC1B7v160006EPKc, symObjAddr: 0x1F9C, symBinAddr: 0x100005084, symSize: 0x34 }
  - { offsetInCU: 0xD3CE, offset: 0xD3CE, size: 0x8, addend: 0x0, symName: __ZNSt12length_errorC2B7v160006EPKc, symObjAddr: 0x1FD0, symBinAddr: 0x1000050B8, symSize: 0x4C }
  - { offsetInCU: 0xD406, offset: 0xD406, size: 0x8, addend: 0x0, symName: __ZNSt3__19allocatorI5PixelE8allocateB7v160006Em, symObjAddr: 0x201C, symBinAddr: 0x100005104, symSize: 0x5C }
  - { offsetInCU: 0xD43A, offset: 0xD43A, size: 0x8, addend: 0x0, symName: __ZNSt3__117__compressed_pairIP5PixelNS_9allocatorIS1_EEE6secondB7v160006Ev, symObjAddr: 0x20F8, symBinAddr: 0x1000051E0, symSize: 0x24 }
  - { offsetInCU: 0xD460, offset: 0xD460, size: 0x8, addend: 0x0, symName: __ZNSt3__122__compressed_pair_elemINS_9allocatorI5PixelEELi1ELb1EE5__getB7v160006Ev, symObjAddr: 0x211C, symBinAddr: 0x100005204, symSize: 0x14 }
  - { offsetInCU: 0xD486, offset: 0xD486, size: 0x8, addend: 0x0, symName: __ZNSt3__117__compressed_pairIP5PixelNS_9allocatorIS1_EEE5firstB7v160006Ev, symObjAddr: 0x2130, symBinAddr: 0x100005218, symSize: 0x24 }
  - { offsetInCU: 0xD4AC, offset: 0xD4AC, size: 0x8, addend: 0x0, symName: __ZNSt3__122__compressed_pair_elemIP5PixelLi0ELb0EE5__getB7v160006Ev, symObjAddr: 0x2154, symBinAddr: 0x10000523C, symSize: 0x14 }
  - { offsetInCU: 0xD4D2, offset: 0xD4D2, size: 0x8, addend: 0x0, symName: __ZNKSt3__16vectorI5PixelNS_9allocatorIS1_EEE31__annotate_contiguous_containerB7v160006EPKvS6_S6_S6_, symObjAddr: 0x2168, symBinAddr: 0x100005250, symSize: 0x20 }
  - { offsetInCU: 0xD528, offset: 0xD528, size: 0x8, addend: 0x0, symName: __ZNKSt3__16vectorI5PixelNS_9allocatorIS1_EEE4dataB7v160006Ev, symObjAddr: 0x2188, symBinAddr: 0x100005270, symSize: 0x28 }
  - { offsetInCU: 0xD54E, offset: 0xD54E, size: 0x8, addend: 0x0, symName: __ZNKSt3__16vectorI5PixelNS_9allocatorIS1_EEE8capacityB7v160006Ev, symObjAddr: 0x21B0, symBinAddr: 0x100005298, symSize: 0x40 }
  - { offsetInCU: 0xD574, offset: 0xD574, size: 0x8, addend: 0x0, symName: __ZNKSt3__16vectorI5PixelNS_9allocatorIS1_EEE9__end_capB7v160006Ev, symObjAddr: 0x2204, symBinAddr: 0x1000052EC, symSize: 0x28 }
  - { offsetInCU: 0xD59A, offset: 0xD59A, size: 0x8, addend: 0x0, symName: __ZNKSt3__117__compressed_pairIP5PixelNS_9allocatorIS1_EEE5firstB7v160006Ev, symObjAddr: 0x222C, symBinAddr: 0x100005314, symSize: 0x24 }
  - { offsetInCU: 0xD5C0, offset: 0xD5C0, size: 0x8, addend: 0x0, symName: __ZNKSt3__122__compressed_pair_elemIP5PixelLi0ELb0EE5__getB7v160006Ev, symObjAddr: 0x2250, symBinAddr: 0x100005338, symSize: 0x14 }
  - { offsetInCU: 0xD5FF, offset: 0xD5FF, size: 0x8, addend: 0x0, symName: __ZNSt3__16vectorI5PixelNS_9allocatorIS1_EEE21_ConstructTransactionC1B7v160006ERS4_m, symObjAddr: 0x2264, symBinAddr: 0x10000534C, symSize: 0x3C }
  - { offsetInCU: 0xD647, offset: 0xD647, size: 0x8, addend: 0x0, symName: __ZNSt3__116allocator_traitsINS_9allocatorI5PixelEEE9constructB7v160006IS2_JEvEEvRS3_PT_DpOT0_, symObjAddr: 0x22A0, symBinAddr: 0x100005388, symSize: 0x2C }
  - { offsetInCU: 0xD689, offset: 0xD689, size: 0x8, addend: 0x0, symName: __ZNSt3__16vectorI5PixelNS_9allocatorIS1_EEE21_ConstructTransactionD1B7v160006Ev, symObjAddr: 0x22CC, symBinAddr: 0x1000053B4, symSize: 0x2C }
  - { offsetInCU: 0xD6B3, offset: 0xD6B3, size: 0x8, addend: 0x0, symName: __ZNSt3__16vectorI5PixelNS_9allocatorIS1_EEE21_ConstructTransactionC2B7v160006ERS4_m, symObjAddr: 0x22F8, symBinAddr: 0x1000053E0, symSize: 0x4C }
  - { offsetInCU: 0xD6FB, offset: 0xD6FB, size: 0x8, addend: 0x0, symName: __ZNSt3__19allocatorI5PixelE9constructB7v160006IS1_JEEEvPT_DpOT0_, symObjAddr: 0x2344, symBinAddr: 0x10000542C, symSize: 0x20 }
  - { offsetInCU: 0xD73D, offset: 0xD73D, size: 0x8, addend: 0x0, symName: __ZNSt3__16vectorI5PixelNS_9allocatorIS1_EEE21_ConstructTransactionD2B7v160006Ev, symObjAddr: 0x2364, symBinAddr: 0x10000544C, symSize: 0x20 }
  - { offsetInCU: 0xD767, offset: 0xD767, size: 0x8, addend: 0x0, symName: __ZNSt3__128__exception_guard_exceptionsINS_6vectorI5PixelNS_9allocatorIS2_EEE16__destroy_vectorEED2B7v160006Ev, symObjAddr: 0x2384, symBinAddr: 0x10000546C, symSize: 0x50 }
  - { offsetInCU: 0xD791, offset: 0xD791, size: 0x8, addend: 0x0, symName: __ZNSt3__16vectorI5PixelNS_9allocatorIS1_EEE16__destroy_vectorclB7v160006Ev, symObjAddr: 0x23D4, symBinAddr: 0x1000054BC, symSize: 0x9C }
  - { offsetInCU: 0xD7B7, offset: 0xD7B7, size: 0x8, addend: 0x0, symName: __ZNKSt3__16vectorI5PixelNS_9allocatorIS1_EEE17__annotate_deleteB7v160006Ev, symObjAddr: 0x2470, symBinAddr: 0x100005558, symSize: 0xD4 }
  - { offsetInCU: 0xD7DD, offset: 0xD7DD, size: 0x8, addend: 0x0, symName: __ZNSt3__16vectorI5PixelNS_9allocatorIS1_EEE7__clearB7v160006Ev, symObjAddr: 0x2554, symBinAddr: 0x10000563C, symSize: 0x28 }
  - { offsetInCU: 0xD803, offset: 0xD803, size: 0x8, addend: 0x0, symName: __ZNSt3__116allocator_traitsINS_9allocatorI5PixelEEE10deallocateB7v160006ERS3_PS2_m, symObjAddr: 0x257C, symBinAddr: 0x100005664, symSize: 0x34 }
  - { offsetInCU: 0xD845, offset: 0xD845, size: 0x8, addend: 0x0, symName: __ZNKSt3__16vectorI5PixelNS_9allocatorIS1_EEE4sizeB7v160006Ev, symObjAddr: 0x25B0, symBinAddr: 0x100005698, symSize: 0x28 }
  - { offsetInCU: 0xD86B, offset: 0xD86B, size: 0x8, addend: 0x0, symName: __ZNSt3__16vectorI5PixelNS_9allocatorIS1_EEE22__base_destruct_at_endB7v160006EPS1_, symObjAddr: 0x25D8, symBinAddr: 0x1000056C0, symSize: 0x8C }
  - { offsetInCU: 0xD8AF, offset: 0xD8AF, size: 0x8, addend: 0x0, symName: __ZNSt3__116allocator_traitsINS_9allocatorI5PixelEEE7destroyB7v160006IS2_vEEvRS3_PT_, symObjAddr: 0x2664, symBinAddr: 0x10000574C, symSize: 0x2C }
  - { offsetInCU: 0xD8EC, offset: 0xD8EC, size: 0x8, addend: 0x0, symName: __ZNSt3__19allocatorI5PixelE7destroyB7v160006EPS1_, symObjAddr: 0x2690, symBinAddr: 0x100005778, symSize: 0x14 }
  - { offsetInCU: 0xD920, offset: 0xD920, size: 0x8, addend: 0x0, symName: __ZNSt3__19allocatorI5PixelE10deallocateB7v160006EPS1_m, symObjAddr: 0x26A4, symBinAddr: 0x10000578C, symSize: 0x44 }
  - { offsetInCU: 0xD962, offset: 0xD962, size: 0x8, addend: 0x0, symName: __ZNSt3__16vectorI5PixelNS_9allocatorIS1_EEED2B7v160006Ev, symObjAddr: 0x2764, symBinAddr: 0x10000584C, symSize: 0x44 }
  - { offsetInCU: 0xD98C, offset: 0xD98C, size: 0x8, addend: 0x0, symName: __ZNSt3__16vectorINS0_I5PixelNS_9allocatorIS1_EEEENS2_IS4_EEEC2EmRKS4_, symObjAddr: 0x27A8, symBinAddr: 0x100005890, symSize: 0xE8 }
  - { offsetInCU: 0xD9EB, offset: 0xD9EB, size: 0x8, addend: 0x0, symName: __ZNSt3__117__compressed_pairIPNS_6vectorI5PixelNS_9allocatorIS2_EEEENS3_IS5_EEEC1B7v160006IDnNS_18__default_init_tagEEEOT_OT0_, symObjAddr: 0x2890, symBinAddr: 0x100005978, symSize: 0x3C }
  - { offsetInCU: 0xDA43, offset: 0xDA43, size: 0x8, addend: 0x0, symName: __ZNSt3__16vectorINS0_I5PixelNS_9allocatorIS1_EEEENS2_IS4_EEE16__destroy_vectorC1ERS6_, symObjAddr: 0x290C, symBinAddr: 0x1000059F4, symSize: 0x34 }
  - { offsetInCU: 0xDA7C, offset: 0xDA7C, size: 0x8, addend: 0x0, symName: __ZNSt3__16vectorINS0_I5PixelNS_9allocatorIS1_EEEENS2_IS4_EEE11__vallocateB7v160006Em, symObjAddr: 0x2950, symBinAddr: 0x100005A38, symSize: 0xB4 }
  - { offsetInCU: 0xDAC0, offset: 0xDAC0, size: 0x8, addend: 0x0, symName: __ZNSt3__16vectorINS0_I5PixelNS_9allocatorIS1_EEEENS2_IS4_EEE18__construct_at_endEmRKS4_, symObjAddr: 0x2A04, symBinAddr: 0x100005AEC, symSize: 0xD0 }
  - { offsetInCU: 0xDB42, offset: 0xDB42, size: 0x8, addend: 0x0, symName: __ZNSt3__128__exception_guard_exceptionsINS_6vectorINS1_I5PixelNS_9allocatorIS2_EEEENS3_IS5_EEE16__destroy_vectorEE10__completeB7v160006Ev, symObjAddr: 0x2AD4, symBinAddr: 0x100005BBC, symSize: 0x1C }
  - { offsetInCU: 0xDB68, offset: 0xDB68, size: 0x8, addend: 0x0, symName: __ZNSt3__128__exception_guard_exceptionsINS_6vectorINS1_I5PixelNS_9allocatorIS2_EEEENS3_IS5_EEE16__destroy_vectorEED1B7v160006Ev, symObjAddr: 0x2AF0, symBinAddr: 0x100005BD8, symSize: 0x2C }
  - { offsetInCU: 0xDB92, offset: 0xDB92, size: 0x8, addend: 0x0, symName: __ZNSt3__117__compressed_pairIPNS_6vectorI5PixelNS_9allocatorIS2_EEEENS3_IS5_EEEC2B7v160006IDnNS_18__default_init_tagEEEOT_OT0_, symObjAddr: 0x2B1C, symBinAddr: 0x100005C04, symSize: 0x40 }
  - { offsetInCU: 0xDBEA, offset: 0xDBEA, size: 0x8, addend: 0x0, symName: __ZNSt3__122__compressed_pair_elemIPNS_6vectorI5PixelNS_9allocatorIS2_EEEELi0ELb0EEC2B7v160006IDnvEEOT_, symObjAddr: 0x2B5C, symBinAddr: 0x100005C44, symSize: 0x1C }
  - { offsetInCU: 0xDC2C, offset: 0xDC2C, size: 0x8, addend: 0x0, symName: __ZNSt3__122__compressed_pair_elemINS_9allocatorINS_6vectorI5PixelNS1_IS3_EEEEEELi1ELb1EEC2B7v160006ENS_18__default_init_tagE, symObjAddr: 0x2B78, symBinAddr: 0x100005C60, symSize: 0x2C }
  - { offsetInCU: 0xDC61, offset: 0xDC61, size: 0x8, addend: 0x0, symName: __ZNSt3__19allocatorINS_6vectorI5PixelNS0_IS2_EEEEEC2B7v160006Ev, symObjAddr: 0x2BA4, symBinAddr: 0x100005C8C, symSize: 0x2C }
  - { offsetInCU: 0xDC8B, offset: 0xDC8B, size: 0x8, addend: 0x0, symName: __ZNSt3__116__non_trivial_ifILb1ENS_9allocatorINS_6vectorI5PixelNS1_IS3_EEEEEEEC2B7v160006Ev, symObjAddr: 0x2BD0, symBinAddr: 0x100005CB8, symSize: 0x14 }
  - { offsetInCU: 0xDCB5, offset: 0xDCB5, size: 0x8, addend: 0x0, symName: __ZNSt3__128__exception_guard_exceptionsINS_6vectorINS1_I5PixelNS_9allocatorIS2_EEEENS3_IS5_EEE16__destroy_vectorEEC1B7v160006ES8_, symObjAddr: 0x2BE4, symBinAddr: 0x100005CCC, symSize: 0x34 }
  - { offsetInCU: 0xDCED, offset: 0xDCED, size: 0x8, addend: 0x0, symName: __ZNSt3__128__exception_guard_exceptionsINS_6vectorINS1_I5PixelNS_9allocatorIS2_EEEENS3_IS5_EEE16__destroy_vectorEEC2B7v160006ES8_, symObjAddr: 0x2C18, symBinAddr: 0x100005D00, symSize: 0x24 }
  - { offsetInCU: 0xDD25, offset: 0xDD25, size: 0x8, addend: 0x0, symName: __ZNSt3__16vectorINS0_I5PixelNS_9allocatorIS1_EEEENS2_IS4_EEE16__destroy_vectorC2ERS6_, symObjAddr: 0x2C3C, symBinAddr: 0x100005D24, symSize: 0x20 }
  - { offsetInCU: 0xDD5E, offset: 0xDD5E, size: 0x8, addend: 0x0, symName: __ZNKSt3__16vectorINS0_I5PixelNS_9allocatorIS1_EEEENS2_IS4_EEE8max_sizeEv, symObjAddr: 0x2C5C, symBinAddr: 0x100005D44, symSize: 0x60 }
  - { offsetInCU: 0xDD86, offset: 0xDD86, size: 0x8, addend: 0x0, symName: __ZNKSt3__16vectorINS0_I5PixelNS_9allocatorIS1_EEEENS2_IS4_EEE20__throw_length_errorB7v160006Ev, symObjAddr: 0x2CBC, symBinAddr: 0x100005DA4, symSize: 0x1C }
  - { offsetInCU: 0xDDAC, offset: 0xDDAC, size: 0x8, addend: 0x0, symName: __ZNSt3__16vectorINS0_I5PixelNS_9allocatorIS1_EEEENS2_IS4_EEE7__allocB7v160006Ev, symObjAddr: 0x2D18, symBinAddr: 0x100005E00, symSize: 0x28 }
  - { offsetInCU: 0xDDD2, offset: 0xDDD2, size: 0x8, addend: 0x0, symName: __ZNSt3__16vectorINS0_I5PixelNS_9allocatorIS1_EEEENS2_IS4_EEE9__end_capB7v160006Ev, symObjAddr: 0x2D40, symBinAddr: 0x100005E28, symSize: 0x28 }
  - { offsetInCU: 0xDDF8, offset: 0xDDF8, size: 0x8, addend: 0x0, symName: __ZNKSt3__16vectorINS0_I5PixelNS_9allocatorIS1_EEEENS2_IS4_EEE14__annotate_newB7v160006Em, symObjAddr: 0x2D68, symBinAddr: 0x100005E50, symSize: 0xC8 }
  - { offsetInCU: 0xDE37, offset: 0xDE37, size: 0x8, addend: 0x0, symName: __ZNSt3__116allocator_traitsINS_9allocatorINS_6vectorI5PixelNS1_IS3_EEEEEEE8max_sizeB7v160006IS6_vEEmRKS6_, symObjAddr: 0x2E30, symBinAddr: 0x100005F18, symSize: 0x24 }
  - { offsetInCU: 0xDE65, offset: 0xDE65, size: 0x8, addend: 0x0, symName: __ZNKSt3__16vectorINS0_I5PixelNS_9allocatorIS1_EEEENS2_IS4_EEE7__allocB7v160006Ev, symObjAddr: 0x2E54, symBinAddr: 0x100005F3C, symSize: 0x28 }
  - { offsetInCU: 0xDE8B, offset: 0xDE8B, size: 0x8, addend: 0x0, symName: __ZNKSt3__19allocatorINS_6vectorI5PixelNS0_IS2_EEEEE8max_sizeB7v160006Ev, symObjAddr: 0x2E7C, symBinAddr: 0x100005F64, symSize: 0x18 }
  - { offsetInCU: 0xDEB1, offset: 0xDEB1, size: 0x8, addend: 0x0, symName: __ZNKSt3__117__compressed_pairIPNS_6vectorI5PixelNS_9allocatorIS2_EEEENS3_IS5_EEE6secondB7v160006Ev, symObjAddr: 0x2E94, symBinAddr: 0x100005F7C, symSize: 0x24 }
  - { offsetInCU: 0xDED7, offset: 0xDED7, size: 0x8, addend: 0x0, symName: __ZNKSt3__122__compressed_pair_elemINS_9allocatorINS_6vectorI5PixelNS1_IS3_EEEEEELi1ELb1EE5__getB7v160006Ev, symObjAddr: 0x2EB8, symBinAddr: 0x100005FA0, symSize: 0x14 }
  - { offsetInCU: 0xDEFD, offset: 0xDEFD, size: 0x8, addend: 0x0, symName: __ZNSt3__19allocatorINS_6vectorI5PixelNS0_IS2_EEEEE8allocateB7v160006Em, symObjAddr: 0x2ECC, symBinAddr: 0x100005FB4, symSize: 0x5C }
  - { offsetInCU: 0xDF31, offset: 0xDF31, size: 0x8, addend: 0x0, symName: __ZNSt3__117__compressed_pairIPNS_6vectorI5PixelNS_9allocatorIS2_EEEENS3_IS5_EEE6secondB7v160006Ev, symObjAddr: 0x2F28, symBinAddr: 0x100006010, symSize: 0x24 }
  - { offsetInCU: 0xDF57, offset: 0xDF57, size: 0x8, addend: 0x0, symName: __ZNSt3__122__compressed_pair_elemINS_9allocatorINS_6vectorI5PixelNS1_IS3_EEEEEELi1ELb1EE5__getB7v160006Ev, symObjAddr: 0x2F4C, symBinAddr: 0x100006034, symSize: 0x14 }
  - { offsetInCU: 0xDF7D, offset: 0xDF7D, size: 0x8, addend: 0x0, symName: __ZNSt3__117__compressed_pairIPNS_6vectorI5PixelNS_9allocatorIS2_EEEENS3_IS5_EEE5firstB7v160006Ev, symObjAddr: 0x2F60, symBinAddr: 0x100006048, symSize: 0x24 }
  - { offsetInCU: 0xDFA3, offset: 0xDFA3, size: 0x8, addend: 0x0, symName: __ZNSt3__122__compressed_pair_elemIPNS_6vectorI5PixelNS_9allocatorIS2_EEEELi0ELb0EE5__getB7v160006Ev, symObjAddr: 0x2F84, symBinAddr: 0x10000606C, symSize: 0x14 }
  - { offsetInCU: 0xDFC9, offset: 0xDFC9, size: 0x8, addend: 0x0, symName: __ZNKSt3__16vectorINS0_I5PixelNS_9allocatorIS1_EEEENS2_IS4_EEE31__annotate_contiguous_containerB7v160006EPKvS8_S8_S8_, symObjAddr: 0x2F98, symBinAddr: 0x100006080, symSize: 0x20 }
  - { offsetInCU: 0xE01F, offset: 0xE01F, size: 0x8, addend: 0x0, symName: __ZNKSt3__16vectorINS0_I5PixelNS_9allocatorIS1_EEEENS2_IS4_EEE4dataB7v160006Ev, symObjAddr: 0x2FB8, symBinAddr: 0x1000060A0, symSize: 0x28 }
  - { offsetInCU: 0xE045, offset: 0xE045, size: 0x8, addend: 0x0, symName: __ZNKSt3__16vectorINS0_I5PixelNS_9allocatorIS1_EEEENS2_IS4_EEE8capacityB7v160006Ev, symObjAddr: 0x2FE0, symBinAddr: 0x1000060C8, symSize: 0x40 }
  - { offsetInCU: 0xE06B, offset: 0xE06B, size: 0x8, addend: 0x0, symName: __ZNKSt3__16vectorINS0_I5PixelNS_9allocatorIS1_EEEENS2_IS4_EEE9__end_capB7v160006Ev, symObjAddr: 0x3034, symBinAddr: 0x10000611C, symSize: 0x28 }
  - { offsetInCU: 0xE091, offset: 0xE091, size: 0x8, addend: 0x0, symName: __ZNKSt3__117__compressed_pairIPNS_6vectorI5PixelNS_9allocatorIS2_EEEENS3_IS5_EEE5firstB7v160006Ev, symObjAddr: 0x305C, symBinAddr: 0x100006144, symSize: 0x24 }
  - { offsetInCU: 0xE0B7, offset: 0xE0B7, size: 0x8, addend: 0x0, symName: __ZNKSt3__122__compressed_pair_elemIPNS_6vectorI5PixelNS_9allocatorIS2_EEEELi0ELb0EE5__getB7v160006Ev, symObjAddr: 0x3080, symBinAddr: 0x100006168, symSize: 0x14 }
  - { offsetInCU: 0xE0F6, offset: 0xE0F6, size: 0x8, addend: 0x0, symName: __ZNSt3__16vectorINS0_I5PixelNS_9allocatorIS1_EEEENS2_IS4_EEE21_ConstructTransactionC1B7v160006ERS6_m, symObjAddr: 0x3094, symBinAddr: 0x10000617C, symSize: 0x3C }
  - { offsetInCU: 0xE13E, offset: 0xE13E, size: 0x8, addend: 0x0, symName: __ZNSt3__116allocator_traitsINS_9allocatorINS_6vectorI5PixelNS1_IS3_EEEEEEE9constructB7v160006IS5_JRKS5_EvEEvRS6_PT_DpOT0_, symObjAddr: 0x30D0, symBinAddr: 0x1000061B8, symSize: 0x34 }
  - { offsetInCU: 0xE195, offset: 0xE195, size: 0x8, addend: 0x0, symName: __ZNSt3__16vectorINS0_I5PixelNS_9allocatorIS1_EEEENS2_IS4_EEE21_ConstructTransactionD1B7v160006Ev, symObjAddr: 0x3104, symBinAddr: 0x1000061EC, symSize: 0x2C }
  - { offsetInCU: 0xE1BF, offset: 0xE1BF, size: 0x8, addend: 0x0, symName: __ZNSt3__16vectorINS0_I5PixelNS_9allocatorIS1_EEEENS2_IS4_EEE21_ConstructTransactionC2B7v160006ERS6_m, symObjAddr: 0x3130, symBinAddr: 0x100006218, symSize: 0x4C }
  - { offsetInCU: 0xE207, offset: 0xE207, size: 0x8, addend: 0x0, symName: __ZNSt3__19allocatorINS_6vectorI5PixelNS0_IS2_EEEEE9constructB7v160006IS4_JRKS4_EEEvPT_DpOT0_, symObjAddr: 0x317C, symBinAddr: 0x100006264, symSize: 0x30 }
  - { offsetInCU: 0xE25D, offset: 0xE25D, size: 0x8, addend: 0x0, symName: __ZNSt3__16vectorI5PixelNS_9allocatorIS1_EEEC1ERKS4_, symObjAddr: 0x31AC, symBinAddr: 0x100006294, symSize: 0x34 }
  - { offsetInCU: 0xE298, offset: 0xE298, size: 0x8, addend: 0x0, symName: __ZNSt3__16vectorI5PixelNS_9allocatorIS1_EEEC2ERKS4_, symObjAddr: 0x31E0, symBinAddr: 0x1000062C8, symSize: 0x110 }
  - { offsetInCU: 0xE2F7, offset: 0xE2F7, size: 0x8, addend: 0x0, symName: __ZNSt3__116allocator_traitsINS_9allocatorI5PixelEEE37select_on_container_copy_constructionB7v160006IS3_vvEES3_RKS3_, symObjAddr: 0x32F0, symBinAddr: 0x1000063D8, symSize: 0x10 }
  - { offsetInCU: 0xE32B, offset: 0xE32B, size: 0x8, addend: 0x0, symName: __ZNSt3__117__compressed_pairIP5PixelNS_9allocatorIS1_EEEC1B7v160006IDnS4_EEOT_OT0_, symObjAddr: 0x3300, symBinAddr: 0x1000063E8, symSize: 0x3C }
  - { offsetInCU: 0xE383, offset: 0xE383, size: 0x8, addend: 0x0, symName: __ZNSt3__16vectorI5PixelNS_9allocatorIS1_EEE18__construct_at_endIPS1_Li0EEEvT_S7_m, symObjAddr: 0x333C, symBinAddr: 0x100006424, symSize: 0x8C }
  - { offsetInCU: 0xE3F6, offset: 0xE3F6, size: 0x8, addend: 0x0, symName: __ZNSt3__117__compressed_pairIP5PixelNS_9allocatorIS1_EEEC2B7v160006IDnS4_EEOT_OT0_, symObjAddr: 0x33C8, symBinAddr: 0x1000064B0, symSize: 0x44 }
  - { offsetInCU: 0xE44E, offset: 0xE44E, size: 0x8, addend: 0x0, symName: __ZNSt3__122__compressed_pair_elemINS_9allocatorI5PixelEELi1ELb1EEC2B7v160006IS3_vEEOT_, symObjAddr: 0x340C, symBinAddr: 0x1000064F4, symSize: 0x18 }
  - { offsetInCU: 0xE490, offset: 0xE490, size: 0x8, addend: 0x0, symName: __ZNSt3__129_AllocatorDestroyRangeReverseINS_9allocatorI5PixelEEPS2_EC1B7v160006ERS3_RS4_S7_, symObjAddr: 0x3564, symBinAddr: 0x10000664C, symSize: 0x44 }
  - { offsetInCU: 0xE4E7, offset: 0xE4E7, size: 0x8, addend: 0x0, symName: __ZNSt3__116allocator_traitsINS_9allocatorI5PixelEEE9constructB7v160006IS2_JRS2_EvEEvRS3_PT_DpOT0_, symObjAddr: 0x35A8, symBinAddr: 0x100006690, symSize: 0x34 }
  - { offsetInCU: 0xE53E, offset: 0xE53E, size: 0x8, addend: 0x0, symName: __ZNSt3__128__exception_guard_exceptionsINS_29_AllocatorDestroyRangeReverseINS_9allocatorI5PixelEEPS3_EEE10__completeB7v160006Ev, symObjAddr: 0x35DC, symBinAddr: 0x1000066C4, symSize: 0x1C }
  - { offsetInCU: 0xE564, offset: 0xE564, size: 0x8, addend: 0x0, symName: __ZNSt3__128__exception_guard_exceptionsINS_29_AllocatorDestroyRangeReverseINS_9allocatorI5PixelEEPS3_EEED1B7v160006Ev, symObjAddr: 0x35F8, symBinAddr: 0x1000066E0, symSize: 0x2C }
  - { offsetInCU: 0xE58E, offset: 0xE58E, size: 0x8, addend: 0x0, symName: __ZNSt3__128__exception_guard_exceptionsINS_29_AllocatorDestroyRangeReverseINS_9allocatorI5PixelEEPS3_EEEC1B7v160006ES6_, symObjAddr: 0x3624, symBinAddr: 0x10000670C, symSize: 0x34 }
  - { offsetInCU: 0xE5C7, offset: 0xE5C7, size: 0x8, addend: 0x0, symName: __ZNSt3__128__exception_guard_exceptionsINS_29_AllocatorDestroyRangeReverseINS_9allocatorI5PixelEEPS3_EEEC2B7v160006ES6_, symObjAddr: 0x3658, symBinAddr: 0x100006740, symSize: 0x30 }
  - { offsetInCU: 0xE600, offset: 0xE600, size: 0x8, addend: 0x0, symName: __ZNSt3__129_AllocatorDestroyRangeReverseINS_9allocatorI5PixelEEPS2_EC2B7v160006ERS3_RS4_S7_, symObjAddr: 0x3688, symBinAddr: 0x100006770, symSize: 0x38 }
  - { offsetInCU: 0xE657, offset: 0xE657, size: 0x8, addend: 0x0, symName: __ZNSt3__19allocatorI5PixelE9constructB7v160006IS1_JRS1_EEEvPT_DpOT0_, symObjAddr: 0x36C0, symBinAddr: 0x1000067A8, symSize: 0x30 }
  - { offsetInCU: 0xE6AD, offset: 0xE6AD, size: 0x8, addend: 0x0, symName: __ZNSt3__128__exception_guard_exceptionsINS_29_AllocatorDestroyRangeReverseINS_9allocatorI5PixelEEPS3_EEED2B7v160006Ev, symObjAddr: 0x36F0, symBinAddr: 0x1000067D8, symSize: 0x50 }
  - { offsetInCU: 0xE6D7, offset: 0xE6D7, size: 0x8, addend: 0x0, symName: __ZNKSt3__129_AllocatorDestroyRangeReverseINS_9allocatorI5PixelEEPS2_EclB7v160006Ev, symObjAddr: 0x3740, symBinAddr: 0x100006828, symSize: 0x68 }
  - { offsetInCU: 0xE6FD, offset: 0xE6FD, size: 0x8, addend: 0x0, symName: __ZNSt3__116reverse_iteratorIP5PixelEC1B7v160006ES2_, symObjAddr: 0x3818, symBinAddr: 0x100006900, symSize: 0x34 }
  - { offsetInCU: 0xE735, offset: 0xE735, size: 0x8, addend: 0x0, symName: __ZNSt3__116reverse_iteratorIP5PixelEppB7v160006Ev, symObjAddr: 0x38B8, symBinAddr: 0x1000069A0, symSize: 0x20 }
  - { offsetInCU: 0xE75B, offset: 0xE75B, size: 0x8, addend: 0x0, symName: __ZNKSt3__116reverse_iteratorIP5PixelE4baseB7v160006Ev, symObjAddr: 0x38D8, symBinAddr: 0x1000069C0, symSize: 0x18 }
  - { offsetInCU: 0xE786, offset: 0xE786, size: 0x8, addend: 0x0, symName: __ZNSt3__119__to_address_helperINS_16reverse_iteratorIP5PixelEEvE6__callB7v160006ERKS4_, symObjAddr: 0x38F0, symBinAddr: 0x1000069D8, symSize: 0x38 }
  - { offsetInCU: 0xE7A9, offset: 0xE7A9, size: 0x8, addend: 0x0, symName: __ZNKSt3__116reverse_iteratorIP5PixelEptB7v160006Ev, symObjAddr: 0x3928, symBinAddr: 0x100006A10, symSize: 0x24 }
  - { offsetInCU: 0xE7CF, offset: 0xE7CF, size: 0x8, addend: 0x0, symName: __ZNKSt3__116reverse_iteratorIP5PixelEdeB7v160006Ev, symObjAddr: 0x394C, symBinAddr: 0x100006A34, symSize: 0x28 }
  - { offsetInCU: 0xE804, offset: 0xE804, size: 0x8, addend: 0x0, symName: __ZNSt3__116reverse_iteratorIP5PixelEC2B7v160006ES2_, symObjAddr: 0x3974, symBinAddr: 0x100006A5C, symSize: 0x28 }
  - { offsetInCU: 0xE83C, offset: 0xE83C, size: 0x8, addend: 0x0, symName: __ZNSt3__16vectorINS0_I5PixelNS_9allocatorIS1_EEEENS2_IS4_EEE21_ConstructTransactionD2B7v160006Ev, symObjAddr: 0x399C, symBinAddr: 0x100006A84, symSize: 0x20 }
  - { offsetInCU: 0xE866, offset: 0xE866, size: 0x8, addend: 0x0, symName: __ZNSt3__128__exception_guard_exceptionsINS_6vectorINS1_I5PixelNS_9allocatorIS2_EEEENS3_IS5_EEE16__destroy_vectorEED2B7v160006Ev, symObjAddr: 0x39BC, symBinAddr: 0x100006AA4, symSize: 0x50 }
  - { offsetInCU: 0xE890, offset: 0xE890, size: 0x8, addend: 0x0, symName: __ZNSt3__16vectorINS0_I5PixelNS_9allocatorIS1_EEEENS2_IS4_EEE16__destroy_vectorclB7v160006Ev, symObjAddr: 0x3A0C, symBinAddr: 0x100006AF4, symSize: 0x9C }
  - { offsetInCU: 0xE8B6, offset: 0xE8B6, size: 0x8, addend: 0x0, symName: __ZNKSt3__16vectorINS0_I5PixelNS_9allocatorIS1_EEEENS2_IS4_EEE17__annotate_deleteB7v160006Ev, symObjAddr: 0x3AA8, symBinAddr: 0x100006B90, symSize: 0xD4 }
  - { offsetInCU: 0xE8DC, offset: 0xE8DC, size: 0x8, addend: 0x0, symName: __ZNSt3__16vectorINS0_I5PixelNS_9allocatorIS1_EEEENS2_IS4_EEE7__clearB7v160006Ev, symObjAddr: 0x3B8C, symBinAddr: 0x100006C74, symSize: 0x28 }
  - { offsetInCU: 0xE902, offset: 0xE902, size: 0x8, addend: 0x0, symName: __ZNSt3__116allocator_traitsINS_9allocatorINS_6vectorI5PixelNS1_IS3_EEEEEEE10deallocateB7v160006ERS6_PS5_m, symObjAddr: 0x3BB4, symBinAddr: 0x100006C9C, symSize: 0x34 }
  - { offsetInCU: 0xE944, offset: 0xE944, size: 0x8, addend: 0x0, symName: __ZNKSt3__16vectorINS0_I5PixelNS_9allocatorIS1_EEEENS2_IS4_EEE4sizeB7v160006Ev, symObjAddr: 0x3BE8, symBinAddr: 0x100006CD0, symSize: 0x28 }
  - { offsetInCU: 0xE96A, offset: 0xE96A, size: 0x8, addend: 0x0, symName: __ZNSt3__16vectorINS0_I5PixelNS_9allocatorIS1_EEEENS2_IS4_EEE22__base_destruct_at_endB7v160006EPS4_, symObjAddr: 0x3C10, symBinAddr: 0x100006CF8, symSize: 0x8C }
  - { offsetInCU: 0xE9AE, offset: 0xE9AE, size: 0x8, addend: 0x0, symName: __ZNSt3__116allocator_traitsINS_9allocatorINS_6vectorI5PixelNS1_IS3_EEEEEEE7destroyB7v160006IS5_vEEvRS6_PT_, symObjAddr: 0x3C9C, symBinAddr: 0x100006D84, symSize: 0x2C }
  - { offsetInCU: 0xE9EB, offset: 0xE9EB, size: 0x8, addend: 0x0, symName: __ZNSt3__19allocatorINS_6vectorI5PixelNS0_IS2_EEEEE7destroyB7v160006EPS4_, symObjAddr: 0x3CC8, symBinAddr: 0x100006DB0, symSize: 0x28 }
  - { offsetInCU: 0xEA1F, offset: 0xEA1F, size: 0x8, addend: 0x0, symName: __ZNSt3__19allocatorINS_6vectorI5PixelNS0_IS2_EEEEE10deallocateB7v160006EPS4_m, symObjAddr: 0x3CF0, symBinAddr: 0x100006DD8, symSize: 0x44 }
  - { offsetInCU: 0xEA61, offset: 0xEA61, size: 0x8, addend: 0x0, symName: __ZNSt3__16vectorINS0_I5PixelNS_9allocatorIS1_EEEENS2_IS4_EEED2B7v160006Ev, symObjAddr: 0x3D34, symBinAddr: 0x100006E1C, symSize: 0x44 }
  - { offsetInCU: 0xEA8B, offset: 0xEA8B, size: 0x8, addend: 0x0, symName: __ZNSt3__16vectorINS0_I5PixelNS_9allocatorIS1_EEEENS2_IS4_EEEC2ERKS6_, symObjAddr: 0x3D78, symBinAddr: 0x100006E60, symSize: 0x110 }
  - { offsetInCU: 0xEAEA, offset: 0xEAEA, size: 0x8, addend: 0x0, symName: __ZNSt3__116allocator_traitsINS_9allocatorINS_6vectorI5PixelNS1_IS3_EEEEEEE37select_on_container_copy_constructionB7v160006IS6_vvEES6_RKS6_, symObjAddr: 0x3E88, symBinAddr: 0x100006F70, symSize: 0x10 }
  - { offsetInCU: 0xEB1E, offset: 0xEB1E, size: 0x8, addend: 0x0, symName: __ZNSt3__117__compressed_pairIPNS_6vectorI5PixelNS_9allocatorIS2_EEEENS3_IS5_EEEC1B7v160006IDnS7_EEOT_OT0_, symObjAddr: 0x3E98, symBinAddr: 0x100006F80, symSize: 0x3C }
  - { offsetInCU: 0xEB76, offset: 0xEB76, size: 0x8, addend: 0x0, symName: __ZNSt3__16vectorINS0_I5PixelNS_9allocatorIS1_EEEENS2_IS4_EEE18__construct_at_endIPS4_Li0EEEvT_S9_m, symObjAddr: 0x3ED4, symBinAddr: 0x100006FBC, symSize: 0x8C }
  - { offsetInCU: 0xEBE9, offset: 0xEBE9, size: 0x8, addend: 0x0, symName: __ZNSt3__117__compressed_pairIPNS_6vectorI5PixelNS_9allocatorIS2_EEEENS3_IS5_EEEC2B7v160006IDnS7_EEOT_OT0_, symObjAddr: 0x3F60, symBinAddr: 0x100007048, symSize: 0x44 }
  - { offsetInCU: 0xEC41, offset: 0xEC41, size: 0x8, addend: 0x0, symName: __ZNSt3__122__compressed_pair_elemINS_9allocatorINS_6vectorI5PixelNS1_IS3_EEEEEELi1ELb1EEC2B7v160006IS6_vEEOT_, symObjAddr: 0x3FA4, symBinAddr: 0x10000708C, symSize: 0x18 }
  - { offsetInCU: 0xEC83, offset: 0xEC83, size: 0x8, addend: 0x0, symName: __ZNSt3__129_AllocatorDestroyRangeReverseINS_9allocatorINS_6vectorI5PixelNS1_IS3_EEEEEEPS5_EC1B7v160006ERS6_RS7_SA_, symObjAddr: 0x40FC, symBinAddr: 0x1000071E4, symSize: 0x44 }
  - { offsetInCU: 0xECDA, offset: 0xECDA, size: 0x8, addend: 0x0, symName: __ZNSt3__116allocator_traitsINS_9allocatorINS_6vectorI5PixelNS1_IS3_EEEEEEE9constructB7v160006IS5_JRS5_EvEEvRS6_PT_DpOT0_, symObjAddr: 0x4140, symBinAddr: 0x100007228, symSize: 0x34 }
  - { offsetInCU: 0xED31, offset: 0xED31, size: 0x8, addend: 0x0, symName: __ZNSt3__128__exception_guard_exceptionsINS_29_AllocatorDestroyRangeReverseINS_9allocatorINS_6vectorI5PixelNS2_IS4_EEEEEEPS6_EEE10__completeB7v160006Ev, symObjAddr: 0x4174, symBinAddr: 0x10000725C, symSize: 0x1C }
  - { offsetInCU: 0xED57, offset: 0xED57, size: 0x8, addend: 0x0, symName: __ZNSt3__128__exception_guard_exceptionsINS_29_AllocatorDestroyRangeReverseINS_9allocatorINS_6vectorI5PixelNS2_IS4_EEEEEEPS6_EEED1B7v160006Ev, symObjAddr: 0x4190, symBinAddr: 0x100007278, symSize: 0x2C }
  - { offsetInCU: 0xED81, offset: 0xED81, size: 0x8, addend: 0x0, symName: __ZNSt3__128__exception_guard_exceptionsINS_29_AllocatorDestroyRangeReverseINS_9allocatorINS_6vectorI5PixelNS2_IS4_EEEEEEPS6_EEEC1B7v160006ES9_, symObjAddr: 0x41BC, symBinAddr: 0x1000072A4, symSize: 0x34 }
  - { offsetInCU: 0xEDBA, offset: 0xEDBA, size: 0x8, addend: 0x0, symName: __ZNSt3__128__exception_guard_exceptionsINS_29_AllocatorDestroyRangeReverseINS_9allocatorINS_6vectorI5PixelNS2_IS4_EEEEEEPS6_EEEC2B7v160006ES9_, symObjAddr: 0x41F0, symBinAddr: 0x1000072D8, symSize: 0x30 }
  - { offsetInCU: 0xEDF3, offset: 0xEDF3, size: 0x8, addend: 0x0, symName: __ZNSt3__129_AllocatorDestroyRangeReverseINS_9allocatorINS_6vectorI5PixelNS1_IS3_EEEEEEPS5_EC2B7v160006ERS6_RS7_SA_, symObjAddr: 0x4220, symBinAddr: 0x100007308, symSize: 0x38 }
  - { offsetInCU: 0xEE4A, offset: 0xEE4A, size: 0x8, addend: 0x0, symName: __ZNSt3__19allocatorINS_6vectorI5PixelNS0_IS2_EEEEE9constructB7v160006IS4_JRS4_EEEvPT_DpOT0_, symObjAddr: 0x4258, symBinAddr: 0x100007340, symSize: 0x30 }
  - { offsetInCU: 0xEEA0, offset: 0xEEA0, size: 0x8, addend: 0x0, symName: __ZNSt3__128__exception_guard_exceptionsINS_29_AllocatorDestroyRangeReverseINS_9allocatorINS_6vectorI5PixelNS2_IS4_EEEEEEPS6_EEED2B7v160006Ev, symObjAddr: 0x4288, symBinAddr: 0x100007370, symSize: 0x50 }
  - { offsetInCU: 0xEECA, offset: 0xEECA, size: 0x8, addend: 0x0, symName: __ZNKSt3__129_AllocatorDestroyRangeReverseINS_9allocatorINS_6vectorI5PixelNS1_IS3_EEEEEEPS5_EclB7v160006Ev, symObjAddr: 0x42D8, symBinAddr: 0x1000073C0, symSize: 0x68 }
  - { offsetInCU: 0xEEF0, offset: 0xEEF0, size: 0x8, addend: 0x0, symName: __ZNSt3__116reverse_iteratorIPNS_6vectorI5PixelNS_9allocatorIS2_EEEEEC1B7v160006ES6_, symObjAddr: 0x43B0, symBinAddr: 0x100007498, symSize: 0x34 }
  - { offsetInCU: 0xEF28, offset: 0xEF28, size: 0x8, addend: 0x0, symName: __ZNSt3__116reverse_iteratorIPNS_6vectorI5PixelNS_9allocatorIS2_EEEEEppB7v160006Ev, symObjAddr: 0x4450, symBinAddr: 0x100007538, symSize: 0x20 }
  - { offsetInCU: 0xEF4E, offset: 0xEF4E, size: 0x8, addend: 0x0, symName: __ZNKSt3__116reverse_iteratorIPNS_6vectorI5PixelNS_9allocatorIS2_EEEEE4baseB7v160006Ev, symObjAddr: 0x4470, symBinAddr: 0x100007558, symSize: 0x18 }
  - { offsetInCU: 0xEF79, offset: 0xEF79, size: 0x8, addend: 0x0, symName: __ZNSt3__119__to_address_helperINS_16reverse_iteratorIPNS_6vectorI5PixelNS_9allocatorIS3_EEEEEEvE6__callB7v160006ERKS8_, symObjAddr: 0x4488, symBinAddr: 0x100007570, symSize: 0x38 }
  - { offsetInCU: 0xEF9C, offset: 0xEF9C, size: 0x8, addend: 0x0, symName: __ZNKSt3__116reverse_iteratorIPNS_6vectorI5PixelNS_9allocatorIS2_EEEEEptB7v160006Ev, symObjAddr: 0x44C0, symBinAddr: 0x1000075A8, symSize: 0x24 }
  - { offsetInCU: 0xEFC2, offset: 0xEFC2, size: 0x8, addend: 0x0, symName: __ZNKSt3__116reverse_iteratorIPNS_6vectorI5PixelNS_9allocatorIS2_EEEEEdeB7v160006Ev, symObjAddr: 0x44E4, symBinAddr: 0x1000075CC, symSize: 0x28 }
  - { offsetInCU: 0xEFF7, offset: 0xEFF7, size: 0x8, addend: 0x0, symName: __ZNSt3__116reverse_iteratorIPNS_6vectorI5PixelNS_9allocatorIS2_EEEEEC2B7v160006ES6_, symObjAddr: 0x450C, symBinAddr: 0x1000075F4, symSize: 0x28 }
...
